c__builtin__
set
p0
((lp1
S'Alternative rock'
p2
aS''
p3
aS'Thirteen Senses'
p4
aS'Brand New'
p5
aS'New Order'
p6
aS'Eleventh Dream Day'
p7
aS'The Pastels'
p8
aS'Goon Moon'
p9
aS'The Weakerthans'
p10
aS'Steve Adey'
p11
aS'American Authors'
p12
aS'Sugar'
p13
aS'Caifanes'
p14
aS'Random article'
p15
aS'Fightstar'
p16
aS'Queens of the Stone Age'
p17
aS'Muse'
p18
aS'Sigur R\xc3\xb3s'
p19
aS'Makethisrelate'
p20
aS'Deerhunter'
p21
aS'Knifeworld (British rock band)'
p22
aS'Mad Season'
p23
aS'Motion City Soundtrack'
p24
aS'Shoegazing'
p25
aS'School of Fish'
p26
aS'TAD'
p27
aS'+44'
p28
aS'The Trews'
p29
aS'Crooked Fingers'
p30
aS'Twin Atlantic'
p31
aS'The Verve'
p32
aS'Morning Parade'
p33
aS'Wolf Parade'
p34
aS"K's Choice"
p35
aS'Bikini Kill'
p36
aS'Candy Flip'
p37
aS'Dodgy'
p38
aS'Slint'
p39
aS'Spacehog'
p40
aS'The Psychedelic Furs'
p41
aS'Jack White'
p42
aS'Frente!'
p43
aS'Christian alternative rock'
p44
aS'Tove Lo'
p45
aS'The Explosion'
p46
aS'Madrugada'
p47
aS'The Stone Roses'
p48
aS'Three Days Grace'
p49
aS'Bowling For Soup'
p50
aS'The All-American Rejects'
p51
aS'Privacy policy'
p52
aS'Andrew Jackson Jihad'
p53
aS'Blumfeld'
p54
aS'Pale Saints'
p55
aS'Article'
p56
aS'Elbow'
p57
aS'Walt Mink'
p58
aS'Flyleaf'
p59
aS'Hole'
p60
aS'The Gandharvas'
p61
aS'Chvrches'
p62
aS'Gene Loves Jezebel'
p63
aS'The Music'
p64
aS'Paramore'
p65
aS'Ocean Colour Scene'
p66
aS'The Boo Radleys'
p67
aS'Birthmark'
p68
aS'Therapy?'
p69
aS'Feeder'
p70
aS'Alkaline Trio'
p71
aS'Pylon'
p72
aS'Blind Melon'
p73
aS'Psychobilly'
p74
aS'The Frames'
p75
aS'Jarvis Cocker'
p76
aS'List of math rock groups'
p77
aS'Moist'
p78
aS'Good Charlotte'
p79
aS'Bayside'
p80
aS'Miracle Legion'
p81
aS'Max\xc3\xafmo Park'
p82
aS'Super Furry Animals'
p83
aS'Bloc Party'
p84
aS'Tegan and Sara'
p85
aS'Young the Giant'
p86
aS'Graham Coxon'
p87
aS'Red Hot Chili Peppers'
p88
aS'Noise rock'
p89
aS'TISM'
p90
aS'The Futureheads'
p91
aS'Black Stone Cherry'
p92
aS'The Datsuns'
p93
aS'Dramarama'
p94
aS'Sadcore'
p95
aS'The Lilac Time'
p96
aS'Mallory Knox'
p97
aS'Sons of Day'
p98
aS'Carolina Liar'
p99
aS'Birdland'
p100
aS'Red'
p101
aS'Dead Letter Circus'
p102
aS'Ima Robot'
p103
aS'Catherine Wheel'
p104
aS'Alternosfera'
p105
aS'The Sisters of Mercy'
p106
aS'Pierce the Veil'
p107
aS'Elizabeth Gillies'
p108
aS'Yeah Yeah Yeahs'
p109
aS'Galt Aureus'
p110
aS'Holly McNarland'
p111
aS'The Cure'
p112
aS'The Telescopes'
p113
aS'Everclear'
p114
aS'Relient K'
p115
aS'Trashcan Sinatras'
p116
aS'Ultravox'
p117
aS'Poets of the Fall'
p118
aS'Reef'
p119
aS'The Border Surrender'
p120
aS'Limp Bizkit'
p121
aS'Grebo'
p122
aS'Superdrag'
p123
aS'Skypilot'
p124
aS'G\xc3\xa2ndul M\xc3\xa2\xc8\x9bei'
p125
aS'The Cardigans'
p126
aS'Splendora'
p127
aS'Violent Femmes'
p128
aS'The The'
p129
aS'Rom\xc3\xa2n\xc4\x83'
p130
aS'The Lemonheads'
p131
aS'Mansun'
p132
aS'Sonic Youth'
p133
aS'Elastica'
p134
aS'Nickelback'
p135
aS'Armor for sleep'
p136
aS'Stone Temple Pilots'
p137
aS'Yellowcard'
p138
aS'The Auteurs'
p139
aS'Badly Drawn Boy'
p140
aS'New Found Glory'
p141
aS'Edwin McCain'
p142
aS'Indie rock'
p143
aS'Kings of Leon'
p144
aS'The Rentals'
p145
aS'The Commuters'
p146
aS'My Darkest Days'
p147
aS'Superchunk'
p148
aS'Lightning Seeds'
p149
aS'Recent changes'
p150
aS'X Ambassadors'
p151
aS'The Servants'
p152
aS'Wellwater Conspiracy'
p153
aS'Verona'
p154
aS'Mayday'
p155
aS'WZRD'
p156
aS'Articles with unsourced statements from August 2013'
p157
aS'Sponge'
p158
aS'LIGHTS'
p159
aS'A Rocket to the Moon'
p160
aS'UB40'
p161
aS'Chagall Guevara'
p162
aS'Wheatus'
p163
aS'Goo Goo Dolls'
p164
aS'Sum 41'
p165
aS'Terms of Use'
p166
aS'Goldfinger'
p167
aS'Royal Republic'
p168
aS'McFly'
p169
aS'Takida'
p170
aS'Copeland'
p171
aS'List of industrial rock bands'
p172
aS'Puddle of Mudd'
p173
aS'Jet'
p174
aS'Sunrise Avenue'
p175
aS'The Church'
p176
aS'Man or Astro-man?'
p177
aS'Papa Roach'
p178
aS'God Lives Underwater'
p179
aS'HAIM'
p180
aS'Music for Dead Birds'
p181
aS'Cloud Control'
p182
aS'Avenged Sevenfold'
p183
aS'Marina and the Diamonds'
p184
aS'Age of Chance'
p185
aS'Indie pop'
p186
aS'We Are The Ocean'
p187
aS'Gas Huffer'
p188
aS'Rocket from the Crypt'
p189
aS'Cobra Starship'
p190
aS'Cocteau Twins'
p191
aS'Jem'
p192
aS'Nirvana'
p193
aS'Korn'
p194
aS'Parokya ni Edgar'
p195
aS'All articles with unsourced statements'
p196
aS'Jimmy Chamberlin Complex'
p197
aS'The Von Bondies'
p198
aS'Hum'
p199
aS'Ra Ra Riot'
p200
aS'Underworld (band)'
p201
aS'Milky Chance'
p202
aS'The Fatima Mansions'
p203
aS'citation needed'
p204
aS'Articles with unsourced statements from November 2013'
p205
aS'The Primitives'
p206
aS'Massive Attack'
p207
aS'Before Their Eyes'
p208
aS'White Lies'
p209
aS'The Hives'
p210
aS'Of Monsters and Men'
p211
aS'C86'
p212
aS'Of Montreal'
p213
aS'Navarone (band)'
p214
aS'3 Colours Red'
p215
aS'Broken Bells'
p216
aS'American Music Club'
p217
aS'Vic Chestnutt'
p218
aS'The Cribs'
p219
aS'Foo Fighters'
p220
aS'Independent record label'
p221
aS'Uniklubi'
p222
aS'XTC'
p223
aS'TV on the Radio'
p224
aS'Interpol'
p225
aS'Saosin'
p226
aS'Joan Jett'
p227
aS'Unwritten Law'
p228
aS'New Politics'
p229
aS'Seaweed'
p230
aS'Remy Zero'
p231
aS'The Birds of Satan'
p232
aS'Black Rebel Motorcycle Club'
p233
aS'Temple of the Dog'
p234
aS'Di-rect'
p235
aS'Contact Wikipedia'
p236
aS'Shohortoli'
p237
aS'Gorillaz'
p238
aS'Luna'
p239
aS'Sponge Cola'
p240
aS'Hoobastank'
p241
aS'v'
p242
aS'Veruca Salt'
p243
aS'Iron & Wine'
p244
aS'List of indie rock musicians'
p245
aS'Vanessa Petruo'
p246
aS'Archive'
p247
aS'Kill Hannah'
p248
aS'Screaming Jets'
p249
aS'Public Image Ltd.'
p250
aS'Christian Burns'
p251
aS'Olenka and the Autumn Lovers'
p252
aS'Bedhead'
p253
aS'Wikidata item'
p254
aS'Tonic'
p255
aS'The Creatures'
p256
aS'Britpop'
p257
aS'Smash Mouth'
p258
aS'Big Data (band)'
p259
aS'Lit'
p260
aS'Fuel'
p261
aS'The Stranglers'
p262
aS'Dead Can Dance'
p263
aS'Coldplay'
p264
aS'His Name Is Alive'
p265
aS'Beangrowers'
p266
aS'The Wolfhounds'
p267
aS'The Wombats'
p268
aS'Say Anything'
p269
aS'Emiliana Torrini'
p270
aS'Air Traffic'
p271
aS'Baggy'
p272
aS'Hazen Street'
p273
aS'Terrible Things'
p274
aS'Go Radio'
p275
aS'The Prodigy'
p276
aS'Phoenix'
p277
aS'List of indie pop artists'
p278
aS'Kimbra'
p279
aS'The Hollow Men'
p280
aS'Distortion Mirrors'
p281
aS'Soda Stereo'
p282
aS'Pendulum'
p283
aS'Meg Myers'
p284
aS'Ozma'
p285
aS'Taking Back Sunday'
p286
aS'Guster'
p287
aS'The Wedding Present'
p288
aS'Carina Round'
p289
aS'The Ramones'
p290
aS'Zeeshan Zaidi'
p291
aS'Mother Love Bone'
p292
aS'Cowboy Junkies'
p293
aS'Pinback'
p294
aS'Peter Murphy'
p295
aS'Bj\xc3\xb6rk'
p296
aS'Architecture in Helsinki'
p297
aS'Hot Snakes'
p298
aS'The Cinematics'
p299
aS'A'
p300
aS'Trapt'
p301
aS'Golden Palominos'
p302
aS'Chevelle'
p303
aS'Shudder to Think'
p304
aS'Wannadies'
p305
aS'Atom Smash'
p306
aS'M83 (band)'
p307
aS'Wire (band)'
p308
aS'Curve'
p309
aS'Belle & Sebastian'
p310
aS'National Velvet'
p311
aS'White Magic'
p312
aS'L7'
p313
aS'Jaguares'
p314
aS'Less Than Jake'
p315
aS'Superchick'
p316
aS'Cake'
p317
aS'Rise Against'
p318
aS'Mr Hudson'
p319
aS'Kings of Convenience'
p320
aS'Sleeper Agent (band)'
p321
aS'Grant Lee Buffalo'
p322
aS'Gomez'
p323
aS'The Fratellis'
p324
aS'Powerman 5000'
p325
aS'The Lumineers'
p326
aS'Courtney Love'
p327
aS'Them Crooked Vultures'
p328
aS'Spirit of the West'
p329
aS'Renegade Soundwave'
p330
aS'The Zutons'
p331
aS'Jack Off Jill'
p332
aS'The Wolfgang Press'
p333
aS'Madina Lake'
p334
aS'Supergrass'
p335
aS'The Radio Dept.'
p336
aS'Everything but the Girl'
p337
aS'Richard Ashcroft'
p338
aS'Blue October'
p339
aS'Polvo'
p340
aS'Fastbacks'
p341
aS'Donate to Wikipedia'
p342
aS'Said the Whale'
p343
aS'Edit links'
p344
aS'Bill Callahan'
p345
aS'Tokyo Police Club'
p346
aS'The Sugarcubes'
p347
aS'Disclaimers'
p348
aS'Blur'
p349
aS'Wintersleep'
p350
aS'Developers'
p351
aS'Hard-Fi'
p352
aS'Okkervil River'
p353
aS'Texas'
p354
aS'Joanna Newsom'
p355
aS'Hinder'
p356
aS'INXS'
p357
aS'Cave In'
p358
aS'Pedro the Lion'
p359
aS'Dynamic lists'
p360
aS'Oleander'
p361
aS'Pop punk'
p362
aS'Volcano Suns'
p363
aS'Every Avenue'
p364
aS'Oasis'
p365
aS'Beck'
p366
aS'Green Day'
p367
aS'McLusky'
p368
aS'Sublime'
p369
aS'Community portal'
p370
aS'The Libertines'
p371
aS'Fireflight'
p372
aS'Madchester'
p373
aS'Wilco'
p374
aS'Kutless'
p375
aS'Tonight Alive'
p376
aS'Breaking Benjamin'
p377
aS'Rob Zombie'
p378
aS'Mobile'
p379
aS'ZZ Ward'
p380
aS'Cracker'
p381
aS'Into Another'
p382
aS'adding citations to reliable sources'
p383
aS'The Maine'
p384
aS'The Black Keys'
p385
aS'Green River'
p386
aS'Eyeshine (band)'
p387
aS'Boy Hits Car'
p388
aS'Lists of rock musicians by subgenre'
p389
aS'Midnight Oil'
p390
aS'Frou Frou'
p391
aS'The Vaselines'
p392
aS'Teenage Fanclub'
p393
aS'Help'
p394
aS'Gin Blossoms'
p395
aS'Avril Lavigne'
p396
aS'Inspiral Carpets'
p397
aS'Charlotte Gainsbourg'
p398
aS'Disciplina Ki\xc4\x8dme'
p399
aS'Sam Roberts'
p400
aS'The Ocean Blue'
p401
aS"I Love You but I've Chosen Darkness"
p402
aS'Fishbone'
p403
aS'New Model Army'
p404
aS'The Constantines'
p405
aS'We Are Scientists'
p406
aS'Portugu\xc3\xaas'
p407
aS'Hootie and The Blowfish'
p408
aS'Silverstein'
p409
aS'Jill Sobule'
p410
aS'The Operation M.D.'
p411
aS'Arctic Monkeys'
p412
aS'Natalie Merchant'
p413
aS'Eraserheads'
p414
aS'Bombay Bicycle Club'
p415
aS'Lo-fi'
p416
aS'Lifehouse'
p417
aS'Marilyn Manson'
p418
aS'Broken Social Scene'
p419
aS'Stars'
p420
aS'Alex Clare'
p421
aS'Alice in Chains'
p422
aS'Dinosaur Pile-Up'
p423
aS'Hurts'
p424
aS'The White Stripes'
p425
aS'Blood Red Shoes'
p426
aS'Eve 6'
p427
aS'Live'
p428
aS'Anberlin'
p429
aS'Bear Hands'
p430
aS"Jane's Addiction"
p431
aS'The 1975'
p432
aS'Travis'
p433
aS'The Amps'
p434
aS'Current events'
p435
aS'Billy Bragg'
p436
aS'Awolnation'
p437
aS'Lostprophets'
p438
aS'Melissa Auf der Maur'
p439
aS'The Subways'
p440
aS'Anarbor'
p441
aS'Nightmare and the Cat'
p442
aS'Morningwood'
p443
aS'Blonde Redhead'
p444
aS'Erase Errata'
p445
aS'Meat Puppets'
p446
aS'Enter Shikari'
p447
aS'Bastille'
p448
aS'Vertical Horizon'
p449
aS'Vast'
p450
aS'The Tea Party'
p451
aS'Love Spit Love'
p452
aS'Shout Out Louds'
p453
aS'AFI'
p454
aS'The Belltower'
p455
aS"Let's Active"
p456
aS'Wakey!Wakey!'
p457
aS'The Wonder Stuff'
p458
aS'Nude'
p459
aS'Vib Gyor'
p460
aS'Godspeed You! Black Emperor'
p461
aS'Elliott Smith'
p462
aS'Cherry Poppin Daddies'
p463
aS'Recovery Child'
p464
aS'Upload file'
p465
aS'Wizard rock'
p466
aS'reliably sourced'
p467
aS'Youngblood Hawke'
p468
aS'Neon Trees'
p469
aS'The Afghan Whigs'
p470
aS'The Smashing Pumpkins'
p471
aS'Grouplove'
p472
aS'Controlled Bleeding'
p473
aS'CSS'
p474
aS'Big Audio Dynamite'
p475
aS'List of post-rock bands'
p476
aS'List of dream pop artists'
p477
aS'Bleachers (band)'
p478
aS'Band of Skulls'
p479
aS'Grandaddy'
p480
aS'The Superjesus'
p481
aS'The Feelies'
p482
aS'Sort Sol'
p483
aS'R.E.M.'
p484
aS'Sweethead'
p485
aS'Lawson'
p486
aS'The Script'
p487
aS'The Sounds'
p488
aS'The Jesus and Mary Chain'
p489
aS'Alien Ant Farm'
p490
aS'Florence and the Machine'
p491
aS'Deaf Havana'
p492
aS'O.A.R.'
p493
aS'Cibo Matto'
p494
aS'Helium'
p495
aS'Chiodos'
p496
aS'A Silent Film'
p497
aS'Even'
p498
aS'Urge Overkill'
p499
aS'Ostava'
p500
aS'Gotye'
p501
aS'Lana Del Rey'
p502
aS'VHS or Beta'
p503
aS'Special pages'
p504
aS'Royal Bliss'
p505
aS'Kitchie Nadal'
p506
aS'Nick Cave and the Bad Seeds'
p507
aS'Drowners'
p508
aS"Jack's Mannequin"
p509
aS'Cell'
p510
aS'Medicine (band)'
p511
aS'Manchester Orchestra'
p512
aS'EMF'
p513
aS'Black'
p514
aS'Razorlight'
p515
aS'Parabelle'
p516
aS'Dishwalla'
p517
aS'Switchfoot'
p518
aS'Air (French band)'
p519
aS'Vampire Weekend'
p520
aS'Hozier'
p521
aS'H\xc3\xbcsker D\xc3\xbc'
p522
aS'54-40'
p523
aS'Canterbury (band)'
p524
aS'The Young Veins'
p525
aS'Material Issue'
p526
aS'Timeline'
p527
aS'The Dead Milkmen'
p528
aS'Orgy (band)'
p529
aS'The Killers'
p530
aS't'
p531
aS'Matchbox Twenty'
p532
aS'Kaizers Orchestra'
p533
aS"Plain White T's"
p534
aS'The Asteroids Galaxy Tour'
p535
aS'Tripping Daisy'
p536
aS'The Dandy Warhols'
p537
aS'Galaxie 500'
p538
aS'Tori Amos'
p539
aS'Richard Hawley'
p540
aS'Gravity Kills'
p541
aS'New Empire'
p542
aS'Spacemen 3'
p543
aS"Sin\xc3\xa9ad O'Connor"
p544
aS'The Mighty Lemon Drops'
p545
aS'Alternative metal'
p546
aS'LostAlone'
p547
aS'Days of the New'
p548
aS'Hurricane No. 1'
p549
aS'Noise pop'
p550
aS'The Raconteurs'
p551
aS'Caf\xc3\xa9 Tacvba'
p552
aS'Echosmith'
p553
aS'Tweaker'
p554
aS'Asian Kung-Fu Generation'
p555
aS'Fun'
p556
aS'Math rock'
p557
aS'Gene'
p558
aS'The Badgeman'
p559
aS'James Iha'
p560
aS'Lower Than Atlantis'
p561
aS'Concrete Blonde'
p562
aS'Talk Talk'
p563
aS'Dunedin Sound'
p564
aS'Fine Young Cannibals'
p565
aS'Story Of The Year'
p566
aS'Republica'
p567
aS'Kasabian'
p568
aS'Quietdrive'
p569
aS'Mission of Burma'
p570
aS'Rivermaya'
p571
aS'The Life and Times'
p572
aS'My Chemical Romance'
p573
aS'Crazy Town'
p574
aS'Embrace'
p575
aS'Lollapalooza'
p576
aS'[3]'
p577
aS'Alternative hip hop'
p578
aS'Moloko'
p579
aS'Hockey'
p580
aS'Cornershop'
p581
aS'I Hate Kate'
p582
aS'Us Amongst The Rest'
p583
aS'U2'
p584
aS'Arcade Fire'
p585
aS'Peter Bjorn and John'
p586
aS'Sleeper'
p587
aS'The Housemartins'
p588
aS'Phantom Planet'
p589
aS'Forever The Sickest Kids'
p590
aS'The Fiery Furnaces'
p591
aS'Liz Phair'
p592
aS'Pulled Apart By Horses'
p593
aS'Sebadoh'
p594
aS'Bloodhound Gang'
p595
aS'Lynda Thomas'
p596
aS'12 Stones'
p597
aS'Phish'
p598
aS'Lists of musicians'
p599
aS'List of Britpop musicians'
p600
aS'Anavae'
p601
aS'The Del Fuegos'
p602
aS'Simple Plan'
p603
aS'The Levellers'
p604
aS'Thousand Foot Krutch'
p605
aS'The Refreshments'
p606
aS'The Dead Weather'
p607
aS'KT Tunstall'
p608
aS'Neu Electrikk'
p609
aS'Quix*o*tic'
p610
aS'Slowdive'
p611
aS'Lou Barlow'
p612
aS'Pato Fu'
p613
aS'The Bravery'
p614
aS'PJ Harvey'
p615
aS'Birds of Tokyo'
p616
aS'Dirty Pretty Things'
p617
aS'One Ok Rock'
p618
aS'Cage The Elephant'
p619
aS"Noel Gallagher's High Flying Birds"
p620
aS'My Bloody Valentine'
p621
aS'The National'
p622
aS'Sleeping with Sirens'
p623
aS'Augustana'
p624
aS'The Ataris'
p625
aS'Ayurveda'
p626
aS'Czes\xc5\x82aw \xc5\x9apiewa'
p627
aS'Pavement'
p628
aS'LCD Soundsystem'
p629
aS'IAMX'
p630
aS'Julian Casablancas'
p631
aS'Nine Black Alps'
p632
aS'Happy Mondays'
p633
aS'All Time Low'
p634
aS'Keane'
p635
aS'Thinking Fellers Union Local 282'
p636
aS'Filter'
p637
aS'Sunny Day Real Estate'
p638
aS'Autolux'
p639
aS'Edwyn Collins'
p640
aS'Lloyd Cole'
p641
aS'A Day To Remember'
p642
aS'Kirsty MacColl'
p643
aS'Tokio Hotel'
p644
aS'Creed (band)'
p645
aS'Bodyjar'
p646
aS'Army of Anyone'
p647
aS'Woe, Is Me'
p648
aS'Motionless in White'
p649
aS'Fatboy Slim'
p650
aS'Forest for the Trees'
p651
aS'The Limousines'
p652
aS'The U-Men'
p653
aS'Poe'
p654
aS'The Posies'
p655
aS'The Railway Children'
p656
aS'Allmusic'
p657
aS'Safetysuit'
p658
aS'Harvey Danger'
p659
aS'Broder Daniel'
p660
aS'Fiona Apple'
p661
aS'\xe0\xb9\x84\xe0\xb8\x97\xe0\xb8\xa2'
p662
aS'Alternative rock musicians'
p663
aS'Anna Ternheim'
p664
aS'The Zolas'
p665
aS'The Joy Formidable'
p666
aS'Kent'
p667
aS'Modern English'
p668
aS'Skye Sweetnam'
p669
aS'7 Year Bitch'
p670
aS'Blink-182'
p671
aS'CKY'
p672
aS'Disciple'
p673
aS'The Shins'
p674
aS'Billy Mackenzie'
p675
aS'Screaming Trees'
p676
aS'The Bluebells'
p677
aS'Headstones'
p678
aS'Dead by Sunrise'
p679
aS'Skin Yard'
p680
aS'You Me At Six'
p681
aS'Indie folk'
p682
aS'Hayden'
p683
aS'Thirty Seconds to Mars'
p684
aS'Love Among Freaks'
p685
aS'Aztec Camera'
p686
aS'Failure'
p687
aS'10,000 Maniacs'
p688
aS'Apparatjik'
p689
aS'Das Damen'
p690
aS'Killdozer'
p691
aS'Squirrel Nut Zippers'
p692
aS'The Smithereens'
p693
aS'Spiritualized'
p694
aS'Fall Out Boy'
p695
aS'Post-grunge'
p696
aS'The Tears'
p697
aS'Front 242'
p698
aS'The New Pornographers'
p699
aS'Odds'
p700
aS'Angels & Airwaves'
p701
aS'P.O.D.'
p702
aS'List of emo artists'
p703
aS'Camper Van Beethoven'
p704
aS'Counting Crows'
p705
aS'Slowcore'
p706
aS'For Against'
p707
aS'Capital Cities (band)'
p708
aS'Generationals'
p709
aS'What links here'
p710
aS'Monaco'
p711
aS'Sin\xc3\xa9ad Lohan'
p712
aS'X'
p713
aS'Billy Corgan'
p714
aS'At the Drive-In'
p715
aS'The Gaslight Anthem'
p716
aS'The Why Store'
p717
aS'The Strokes'
p718
aS'Kaiser Chiefs'
p719
aS'The Jesus Lizard'
p720
aS'Bad Books'
p721
aS'Greek Fire (band)'
p722
aS'The Nymphs'
p723
aS'[2]'
p724
aS'Young Guns'
p725
aS'Dispatch'
p726
aS'Poster Children'
p727
aS'Catal\xc3\xa0'
p728
aS'The Apples in Stereo'
p729
aS'Cute Is What We Aim For'
p730
aS'Starsailor'
p731
aS'Ultra Vivid Scene'
p732
aS'Radiohead'
p733
aS'Poor Old Lu'
p734
aS'Sleigh Bells'
p735
aS'Warpaint'
p736
aS'Jon Spencer Blues Explosion'
p737
aS'Gnarls Barkley'
p738
aS'Human Drama'
p739
aS'The Cramps'
p740
aS'Related changes'
p741
aS'Morcheeba'
p742
aS'311'
p743
aS'Shed Seven'
p744
aS'Portishead'
p745
aS'Sister Hazel'
p746
aS'Rapeman'
p747
aS'The Go-Betweens'
p748
aS'Nada Surf'
p749
aS'Kate Bush'
p750
aS'Belly'
p751
aS'Gumball'
p752
aS'Driver Friendly'
p753
aS'Johnny Marr'
p754
aS'The Epilogue'
p755
aS'Zwan'
p756
aS'Our Lady Peace'
p757
aS'Secondhand Serenade'
p758
aS'Half Japanese'
p759
aS'Swans'
p760
aS'Grunge'
p761
aS'Hideto Matsumoto'
p762
aS'Ben Harper'
p763
aS'Pixies'
p764
aS'Mother Mother'
p765
aS'Pluto'
p766
aS'Sleater-Kinney'
p767
aS'State Radio'
p768
aS'Echo & the Bunnymen'
p769
aS'New Radicals'
p770
aS'Use mdy dates from February 2013'
p771
aS'The Whigs'
p772
aS'Sparta'
p773
aS'Main page'
p774
aS'Zebrahead'
p775
aS'The Innocence Mission'
p776
aS'Shawn Mullins'
p777
aS'List of gothic rock bands'
p778
aS'Idlewild'
p779
aS'Jimmy Eat World'
p780
aS'Zonic Shockum'
p781
aS'Alternative Songs'
p782
aS'About Wikipedia'
p783
aS'The Fray'
p784
aS'Zo\xc3\xa9'
p785
aS'The Presidents of the United States of America'
p786
aS'Mogwai'
p787
aS'Egypt Central'
p788
aS'Mutemath'
p789
aS'Paul Westerberg'
p790
aS'Seven Mary Three'
p791
aS'Eric Gaffney'
p792
aS'Cherri Bomb'
p793
aS'Son of Dork'
p794
aS'Simple Minds'
p795
aS'List of shoegazing musicians'
p796
aS'4 Non Blondes'
p797
aS'Morrissey'
p798
aS'The Polyphonic Spree'
p799
aS'Kane'
p800
aS'Weezer'
p801
aS'Privacy Policy'
p802
aS'Monoral'
p803
aS'Something Corporate'
p804
aS'Dirty Three'
p805
aS'The Fall'
p806
aS'Jeff Buckley'
p807
aS'The Talking Heads'
p808
aS'The Neighbourhood'
p809
aS'Dead Sara'
p810
aS'Contents'
p811
aS'The Decemberists'
p812
aS'Test Icicles'
p813
aS'Hoodoo Gurus'
p814
aS'Big Pig'
p815
aS'Ghinzu'
p816
aS'Walk the Moon'
p817
aS'Surrounded'
p818
aS'Ian Brown'
p819
aS'Sick Puppies'
p820
aS'P.J. Harvey'
p821
aS'Sugarcult'
p822
aS'Gothic rock'
p823
aS'Escape the Fate'
p824
aS'Third Eye Blind'
p825
aS'Raveonettes'
p826
aS'Soup Dragons'
p827
aS'Social Code'
p828
aS'Adorable'
p829
aS'Noori'
p830
aS'Hellogoodbye'
p831
aS'The Bolshoi'
p832
aS'The Breeders'
p833
aS'AllMusic'
p834
aS'Death From Above 1979'
p835
aS'Needtobreathe'
p836
aS'The Pretty Reckless'
p837
aS'Bad Religion'
p838
aS'Beth Orton'
p839
aS'Pulp'
p840
aS'Local Natives'
p841
aS'Spoon'
p842
aS'Better Than Ezra'
p843
aS'Hunter Valentine'
p844
aS'The Dirty Heads'
p845
aS'Death Cab for Cutie'
p846
aS'John Butler Trio'
p847
aS'Oceansize'
p848
aS'Lilys'
p849
aS'Skillet'
p850
aS'Love and Rockets'
p851
aS'Sia Furler'
p852
aS'Alphaville'
p853
aS'13 Engines'
p854
aS'Uverworld'
p855
aS'Letters to Cleo'
p856
aS'Matthew Good'
p857
aS'Emo'
p858
aS'The Spoons'
p859
aS'Robyn Hitchcock'
p860
aS'Cold War Kids'
p861
aS'Voxtrot'
p862
aS'The American Analog Set'
p863
aS'Crash Test Dummies'
p864
aS'The Dodos'
p865
aS'Royal Trux'
p866
aS'KMFDM'
p867
aS'Six Finger Satellite'
p868
aS'Ubiquitous Synergy Seeker'
p869
aS'The Pretenders'
p870
aS'Our Last Night'
p871
aS"My Sister's Machine"
p872
aS'Thin White Rope'
p873
aS'Judybats'
p874
aS'Citizen Cope'
p875
aS"Tapes 'n Tapes"
p876
aS'Ben Folds Five'
p877
aS'The Rubens'
p878
aS'Regina Spektor'
p879
aS'Candlebox'
p880
aS'Bright Eyes'
p881
aS'Biography portal'
p882
aS'The Rockfords'
p883
aS'The Darling Buds'
p884
aS'Unrest'
p885
aS'The Damned'
p886
aS'Tomahawk (band)'
p887
aS'Incubus'
p888
aS'Rage Against The Machine'
p889
aS'Firehose'
p890
aS'Foals'
p891
aS'Icon For Hire'
p892
aS'Electrasy'
p893
aS'Everlast'
p894
aS'Suede'
p895
aS'VersaEmerge'
p896
aS'Kevin Devine'
p897
aS"Ned's Atomic Dustbin"
p898
aS'Portal'
p899
aS'Beastie Boys'
p900
aS'We the Kings'
p901
aS'Local H'
p902
aS'Pearl Jam'
p903
aS'American Football'
p904
aS'Bush'
p905
aS'Stereophonics'
p906
aS'The Sundays'
p907
aS'Envy on the Coast'
p908
aS'Blind Pilot'
p909
aS'Mayday Parade'
p910
aS'Fitz and The Tantrums'
p911
aS'Marching Band'
p912
aS'The Offspring'
p913
aS'The Kills'
p914
aS'Woodkid'
p915
aS'OneRepublic'
p916
aS'Skunk Anansie'
p917
aS'Silverchair'
p918
aS'Stereolab'
p919
aS'The Mountain Goats'
p920
aS'Porno for Pyros'
p921
aS'Carter USM'
p922
aS'Revenge'
p923
aS'The Wallflowers'
p924
aS'Silversun Pickups'
p925
aS'The Naked and Famous'
p926
aS'Jangle pop'
p927
aS'Malfunkshun'
p928
aS'Abra Moore'
p929
aS'Two Door Cinema Club'
p930
aS'The Shamen'
p931
aS'Big Head Todd and The Monsters'
p932
aS'Girl in a Coma'
p933
aS'Neutral Milk Hotel'
p934
aS'Sugar Ray'
p935
aS'Georgia Satellites'
p936
aS'Die Kreuzen'
p937
aS'Game Theory'
p938
aS'Pere Ubu'
p939
aS'Jason Loewenstein'
p940
aS'Hawthorne Heights'
p941
aS'Unsane'
p942
aS'Tones on Tail'
p943
aS'Institute'
p944
aS'Ride'
p945
aS'Band of Susans'
p946
aS'Suzanne Vega'
p947
aS'Lucero'
p948
aS'Articles needing additional references from February 2013'
p949
aS'Linkin Park'
p950
aS'Redd Kross'
p951
aS'Nerf Herder'
p952
aS'Kitchens of Distinction'
p953
aS'Short Stack'
p954
aS'The Used'
p955
aS'The Vaccines'
p956
aS'Cat Power'
p957
aS'Tappi T\xc3\xadkarrass'
p958
aS'World Party'
p959
aS'Love Battery'
p960
aS'Mission U.K.'
p961
aS'City and Colour'
p962
aS'Collective Soul'
p963
aS'Patti Smith'
p964
aS'Primal Scream'
p965
aS'Bullet For My Valentine'
p966
aS'Frank Black and the Catholics'
p967
aS'Jawbox'
p968
aS'Blue Peter'
p969
aS'Circa Survive'
p970
aS'Black Kids'
p971
aS'Moose (band)'
p972
aS'Bracket (band)'
p973
aS'Zox'
p974
aS'Contact page'
p975
aS'Mike Shinoda'
p976
aS'OK Go'
p977
aS'Martha and The Muffins'
p978
aS'Volbeat'
p979
aS'The Living Things'
p980
aS'Robert "Throb" Young'
p981
aS'Team Sleep'
p982
aS'Eels'
p983
aS'The Calling'
p984
aS'Grinderman'
p985
aS'K-OS'
p986
aS'Ida Maria'
p987
aS'Mercury Rev'
p988
aS'Amplifier'
p989
aS'Thom Yorke'
p990
aS'Balance and Composure'
p991
aS'King Missile'
p992
aS'Beat Happening'
p993
aS'The Academy Is...'
p994
aS'Against Me!'
p995
aS'Built to Spill'
p996
aS'Bob Mould'
p997
aS'Alternative dance'
p998
aS'Marcy Playground'
p999
aS'Circus Diablo'
p1000
aS'Imogen Heap'
p1001
aS'Saint Motel'
p1002
aS'Yo La Tengo'
p1003
aS'The Dangerous Summer (band)'
p1004
aS'The Deadly Syndrome'
p1005
aS'The Last Shadow Puppets'
p1006
aS'I Mother Earth'
p1007
aS'Sahara Hotnights'
p1008
aS'Kula Shaker'
p1009
aS'Snow Patrol'
p1010
aS'Glasvegas'
p1011
aS'Brian Jonestown Massacre'
p1012
aS'Moonbabies'
p1013
aS'The House of Love'
p1014
aS'Miles Kane'
p1015
aS'They Might Be Giants'
p1016
aS'Sonic Boom (aka Spectrum)'
p1017
aS'Shearwater'
p1018
aS'Black Grape'
p1019
aS'DIIV'
p1020
aS'All articles needing additional references'
p1021
aS'Killing Joke'
p1022
aS'Dreams So Real'
p1023
aS'Geographer'
p1024
aS'Kodaline'
p1025
aS'James'
p1026
aS'Athlete'
p1027
aS'Too Much Joy'
p1028
aS'The Verve Pipe'
p1029
aS'Luscious Jackson'
p1030
aS'This Mortal Coil'
p1031
aS'Dream pop'
p1032
aS'The Chills'
p1033
aS'Wild Strawberries'
p1034
aS'Jerry Cantrell'
p1035
aS'American Hi-Fi'
p1036
aS'Daisy Chainsaw'
p1037
aS'MGMT'
p1038
aS'Ani DiFranco'
p1039
aS"The La's"
p1040
aS'The Golden Seals'
p1041
aS'Icicle Works'
p1042
aS'Ideamen'
p1043
aS'Flow (band)'
p1044
aS'Talk'
p1045
aS'Franz Ferdinand'
p1046
aS'Boys Like Girls'
p1047
aS'Pussy Galore'
p1048
aS'Ash'
p1049
aS'White Zombie (band)'
p1050
aS'Eugenius'
p1051
aS'Hollywood Undead'
p1052
aS'My Morning Jacket'
p1053
aS'Juliette and the Licks'
p1054
aS"Mary's Danish"
p1055
aS'Babyshambles'
p1056
aS'Matthew Sweet'
p1057
aS'This Century'
p1058
aS'Scratch Acid'
p1059
aS'Weeping Willows'
p1060
aS'The Black Crowes'
p1061
aS'Imagine Dragons'
p1062
aS'Uncle Tupelo'
p1063
aS'The Pillows'
p1064
aS'Dubstar'
p1065
aS'Wax on Radio'
p1066
aS'The Donnas'
p1067
aS'Low'
p1068
aS'The Replacements'
p1069
aS'Social Distortion'
p1070
aS'Soul Asylum'
p1071
aS'The Dream Academy'
p1072
aS'The Vines'
p1073
aS'Dredg'
p1074
aS'Swervedriver'
p1075
aS'The Connells'
p1076
aS'Oingo Boingo'
p1077
aS'Pendragon'
p1078
aS'Dashboard Confessional'
p1079
aS'Primus'
p1080
aS'Larrikin Love'
p1081
aS'Goodbye Mr. Mackenzie'
p1082
aS'Sloan'
p1083
aS'Paisley Underground'
p1084
aS'Cherub (musical duo)'
p1085
aS'Dinosaur Jr.'
p1086
aS'Atlas Genius'
p1087
aS'The Mills'
p1088
aS'South Cry'
p1089
aS'Versus'
p1090
aS'Sixpence None the Richer'
p1091
aS'SCH'
p1092
aS'Stone Sour'
p1093
aS'Magnapop'
p1094
aS'Halestorm'
p1095
aS'Matthew Good Band'
p1096
aS'Starflyer 59'
p1097
aS'Big Black'
p1098
aS'Shellac'
p1099
aS'Blood Circus'
p1100
aS'Alpha Rev'
p1101
aS'The Red Jumpsuit Apparatus'
p1102
aS'Skinny Puppy'
p1103
aS'No Doubt'
p1104
aS'Deerhoof'
p1105
aS'After Midnight Project'
p1106
aS'Editors'
p1107
aS'The Classic Crime'
p1108
aS'Escanaba Firing Line'
p1109
aS'Twenty One Pilots'
p1110
aS'Animal Collective'
p1111
aS"Th' Faith Healers"
p1112
aS'Mando Diao'
p1113
aS'The Hold Steady'
p1114
aS'Post-Britpop'
p1115
aS'Ethyl Meatplow'
p1116
aS'Jars of Clay'
p1117
aS'Shiny Toy Guns'
p1118
aS'Category'
p1119
aS'Saint Etienne (band)'
p1120
aS'Matt and Kim'
p1121
aS'APB'
p1122
aS'Categories'
p1123
aS'Del Amitri'
p1124
aS'Magic Dirt'
p1125
aS'Nine Lashes'
p1126
aS'Manic Street Preachers'
p1127
aS'Fleet Foxes'
p1128
aS'Nine Inch Nails'
p1129
aS'Loop'
p1130
aS'Babes in Toyland'
p1131
aS'Post-rock'
p1132
aS'Transvision Vamp'
p1133
aS'Alanis Morissette'
p1134
aS'Blake Babies'
p1135
aS'Featured content'
p1136
aS'Enanitos Verdes'
p1137
aS'The Silver Jews'
p1138
aS'The Kooks'
p1139
aS'Echobelly'
p1140
aS'Toadies'
p1141
aS'Biffy Clyro'
p1142
aS'Deacon Blue'
p1143
aS'Maroon 5'
p1144
aS'Beady Eye'
p1145
aS'Pond'
p1146
aS'Folk Implosion'
p1147
aS'Fearless Vampire Killers'
p1148
aS'Galego'
p1149
aS'Civil Twilight'
p1150
aS'Pupil'
p1151
aS'Elvis Costello'
p1152
aS'Sambomaster'
p1153
aS'Throwing Muses'
p1154
aS'Neon Horse'
p1155
aS'Three Fish'
p1156
aS'Depeche Mode'
p1157
aS'Ugly Casanova'
p1158
aS'Caesars'
p1159
aS'Riot grrrl'
p1160
aS'The Madden Brothers'
p1161
aS'Underoath'
p1162
aS'The Nearly Deads'
p1163
aS'Mudhoney'
p1164
aS'Aaroh'
p1165
aS'King Charles'
p1166
aS'Minutemen'
p1167
aS"Eve's Plum"
p1168
aS'1990s'
p1169
aS'Guadalcanal Diary'
p1170
aS'Augie March'
p1171
aS'Creative Commons Attribution-ShareAlike License'
p1172
aS'The Cult'
p1173
aS'Roses Are Red'
p1174
aS'Ween'
p1175
aS'Middle Class Rut'
p1176
aS'Primitive Radio Gods'
p1177
aS'Guided by Voices'
p1178
aS'There For Tomorrow'
p1179
aS'LaFee'
p1180
aS'Train'
p1181
aS'The Good, the Bad, and the Queen'
p1182
aS'Giant Drag'
p1183
aS'Tiger Please'
p1184
aS'Alternative rock portal'
p1185
aS'Amp'
p1186
aS'The Drums'
p1187
aS'Hunters and Collectors'
p1188
aS'That Dog'
p1189
aS'The Coral Sea'
p1190
aS'Frightened Rabbit'
p1191
aS'3 Doors Down'
p1192
aS'incomplete list'
p1193
aS'Morphine'
p1194
aS'Audioslave'
p1195
aS'Young Gods'
p1196
aS'Faith No More'
p1197
aS'The Airborne Toxic Event'
p1198
aS'Kongos (band)'
p1199
aS'Wavves'
p1200
aS'Moby'
p1201
aS'The xx'
p1202
aS'Liars'
p1203
aS'The Mayfield Four'
p1204
aS'Some Velvet Sidewalk'
p1205
aS'The Pogues'
p1206
aS"The dB's"
p1207
aS'Siouxsie and the Banshees'
p1208
aS'Sara Craig'
p1209
aS'College rock'
p1210
aS'Juliana Hatfield'
p1211
aS'Klaxons'
p1212
aS'Foster the People'
p1213
aS'Julian Cope'
p1214
aS'Placebo'
p1215
aS'Archers of Loaf'
p1216
aS'Independent music'
p1217
aS'Black Veil Brides'
p1218
aS'The Flaming Lips'
p1219
aS'A Perfect Circle'
p1220
aS'The Alarm'
p1221
aS'The Delgados'
p1222
aS'verification'
p1223
aS'Catatonia'
p1224
aS'The Mekons'
p1225
aS'Hypnolovewheel'
p1226
aS'Ben Kweller'
p1227
aS'Evermore'
p1228
aS'Electronic'
p1229
aS'Soundgarden'
p1230
aS'Panic! At The Disco'
p1231
aS'Lists portal'
p1232
aS'Crowded House'
p1233
aS'As Tall As Lions'
p1234
aS'Soul Coughing'
p1235
aS'Fake Problems'
p1236
aS'Evanescence'
p1237
aS'Smoking Popes'
p1238
aS'Buffalo Tom'
p1239
aS'alternative-rock'
p1240
aS'The Melvins'
p1241
aS'Acceptance'
p1242
aS'Bauhaus'
p1243
aS'Julien-K'
p1244
aS'Butthole Surfers'
p1245
aS'Semisonic'
p1246
aS'Edward Sharpe and the Magnetic Zeros'
p1247
aS'Band of Horses'
p1248
aS'BB Gabor'
p1249
aS'Hot Hot Heat'
p1250
aS'Walk off the Earth'
p1251
aS'Fastball'
p1252
aS'Phantogram (band)'
p1253
aS'Bob hund'
p1254
aS'Tragically Hip'
p1255
aS'Chris Cornell'
p1256
aS'Owl Post'
p1257
aS'Chapterhouse'
p1258
aS'Industrial rock'
p1259
aS'Read'
p1260
aS'The Waterboys'
p1261
aS'The Get Up Kids'
p1262
aS'The Virgins'
p1263
aS'Chumbawamba'
p1264
aS'Evans Blue'
p1265
aS'Buckcherry'
p1266
aS'Ministry (band)'
p1267
aS"Class of '99"
p1268
aS'Francesqa'
p1269
aS'78violet'
p1270
aS'Green on Red'
p1271
aS'Black Box Recorder'
p1272
aS'The Postal Service'
p1273
aS'You Am I'
p1274
aS'Red House Painters'
p1275
aS'Snowcake'
p1276
aS'Freeze the Atlantic'
p1277
aS'Louis XIV'
p1278
aS'Post-punk revival'
p1279
aS'White Town'
p1280
aS'Dream Syndicate'
p1281
aS'Modest Mouse'
p1282
aS'Deftones'
p1283
aS'Latin alternative'
p1284
aS'Pillar'
p1285
aS'Toad the Wet Sprocket'
p1286
aS'Jesus Jones'
p1287
aS'Black Light Burns'
p1288
aS'The Smiths'
p1289
aS'The Cab'
p1290
aS'Cast'
p1291
aS'The Starlings'
p1292
aS'Children of the Anachronistic Dynasty'
p1293
aS'Dave Matthews Band'
p1294
aS'Rooney'
p1295
aS'Rain Parade'
p1296
aS'Stabbing Westward'
p1297
aS'Framing Hanley'
p1298
aS'Billy Talent'
p1299
aS'Barenaked Ladies'
p1300
aS"The Three O'Clock"
p1301
aS'Alt-J'
p1302
aS'Doves'
p1303
aS'The Rain'
p1304
aS'The Charlatans'
p1305
aS'Victoria Williams'
p1306
aS'Mazzy Star'
p1307
aS'Coheed and Cambria'
p1308
aS'Garbage'
p1309
aS'Marianas Trench (band)'
p1310
aS'Pop Will Eat Itself'
p1311
aS'Plimsouls'
p1312
aS'Lush'
p1313
aS'Campus radio'
p1314
aS'The Colourist'
p1315
aS'Colony House'
p1316
aS'List of alternative metal artists'
p1317
aS'Ivoryline'
p1318
aS'Mumford & Sons'
p1319
aS'The Cranberries'
p1320
aS'Bailter Space'
p1321
atp1322
Rp1323
.